target datalayout = "e-m:e-p270:32:32-p271:32:32-p272:64:64-i64:64-i128:128-f80:128-n8:16:32:64-S128"
target triple = "x86_64-unknown-linux-gnu"

%"struct.node::AssertionInfo" = type { ptr, ptr, ptr }
%"struct.node::crypto::CSPRNGResult" = type { i8 }
%class.anon.507 = type { i8 }

@"_ZZZN4nodeL32InitializeOncePerProcessInternalERKSt6vectorINSt7__cxx1112basic_stringIcSt11char_traitsIcESaIcEEESaIS6_EENS_26ProcessInitializationFlags5FlagsEENK3$_1clEPhmE4args" = internal constant %"struct.node::AssertionInfo" { ptr @.str.137, ptr @.str.138, ptr @.str.139 }, align 8

; Function Attrs: mustprogress nounwind uwtable
define linkonce_odr dso_local noundef zeroext i1 @_ZNK4node6crypto12CSPRNGResult5is_okEv(ptr noundef nonnull align 1 dereferenceable(1) %this) #5 comdat align 2 {
entry:
  %this.addr = alloca ptr, align 8
  store ptr %this, ptr %this.addr, align 8
  %this1 = load ptr, ptr %this.addr, align 8
  %ok = getelementptr inbounds %"struct.node::crypto::CSPRNGResult", ptr %this1, i32 0, i32 0
  %0 = load i8, ptr %ok, align 1
  %tobool = trunc i8 %0 to i1
  ret i1 %tobool
}

; Function Attrs: mustprogress nounwind uwtable
define internal noundef zeroext i1 @"_ZZN4nodeL32InitializeOncePerProcessInternalERKSt6vectorINSt7__cxx1112basic_stringIcSt11char_traitsIcESaIcEEESaIS6_EENS_26ProcessInitializationFlags5FlagsEENK3$_1clEPhm"(ptr noundef nonnull align 1 dereferenceable(1) %this, ptr noundef %buffer, i64 noundef %length) #5 align 2 {
entry:
  %this.addr = alloca ptr, align 8
  %buffer.addr = alloca ptr, align 8
  %length.addr = alloca i64, align 8
  %ref.tmp = alloca %"struct.node::crypto::CSPRNGResult", align 1
  store ptr %this, ptr %this.addr, align 8
  store ptr %buffer, ptr %buffer.addr, align 8
  store i64 %length, ptr %length.addr, align 8
  br label %do.body

do.body:                                          ; preds = %entry
  %0 = load ptr, ptr %buffer.addr, align 8
  %1 = load i64, ptr %length.addr, align 8
  %call = call i8 @_ZN4node6crypto6CSPRNGEPvm(ptr noundef %0, i64 noundef %1)
  %coerce.dive = getelementptr inbounds %"struct.node::crypto::CSPRNGResult", ptr %ref.tmp, i32 0, i32 0
  store i8 %call, ptr %coerce.dive, align 1
  %call2 = call noundef zeroext i1 @_ZNK4node6crypto12CSPRNGResult5is_okEv(ptr noundef nonnull align 1 dereferenceable(1) %ref.tmp)
  %lnot = xor i1 %call2, true
  %lnot3 = xor i1 %lnot, true
  %lnot4 = xor i1 %lnot3, true
  br i1 %lnot4, label %if.then, label %if.end

if.then:                                          ; preds = %do.body
  br label %do.body5

do.body5:                                         ; preds = %if.then
  call void @_ZN4node6AssertERKNS_13AssertionInfoE(ptr noundef nonnull align 8 dereferenceable(24) @"_ZZZN4nodeL32InitializeOncePerProcessInternalERKSt6vectorINSt7__cxx1112basic_stringIcSt11char_traitsIcESaIcEEESaIS6_EENS_26ProcessInitializationFlags5FlagsEENK3$_1clEPhmE4args")
  call void @abort() #18
  unreachable

do.end:                                           ; No predecessors!
  br label %if.end

if.end:                                           ; preds = %do.end, %do.body
  br label %do.end6

do.end6:                                          ; preds = %if.end
  ret i1 true
}

; Function Attrs: mustprogress nounwind uwtable
define internal noundef zeroext i1 @"_ZZN4nodeL32InitializeOncePerProcessInternalERKSt6vectorINSt7__cxx1112basic_stringIcSt11char_traitsIcESaIcEEESaIS6_EENS_26ProcessInitializationFlags5FlagsEEN3$_18__invokeEPhm"(ptr noundef %buffer, i64 noundef %length) #5 align 2 {
entry:
  %buffer.addr = alloca ptr, align 8
  %length.addr = alloca i64, align 8
  %unused.capture = alloca %class.anon.507, align 1
  store ptr %buffer, ptr %buffer.addr, align 8
  store i64 %length, ptr %length.addr, align 8
  %0 = load ptr, ptr %buffer.addr, align 8
  %1 = load i64, ptr %length.addr, align 8
  %call = call noundef zeroext i1 @"_ZZN4nodeL32InitializeOncePerProcessInternalERKSt6vectorINSt7__cxx1112basic_stringIcSt11char_traitsIcESaIcEEESaIS6_EENS_26ProcessInitializationFlags5FlagsEENK3$_1clEPhm"(ptr noundef nonnull align 1 dereferenceable(1) %unused.capture, ptr noundef %0, i64 noundef %1)
  ret i1 %call
}