; Function Attrs: mustprogress nounwind uwtable
define internal noundef zeroext i1 @"_ZZN4nodeL32InitializeOncePerProcessInternalERKSt6vectorINSt7__cxx1112basic_stringIcSt11char_traitsIcESaIcEEESaIS6_EENS_26ProcessInitializationFlags5FlagsEEN3$_18__invokeEPhm"(ptr noundef %buffer, i64 noundef %length) #4 align 2 {
entry:
  %call.i = tail call i8 @_ZN4node6crypto6CSPRNGEPvm(ptr noundef %buffer, i64 noundef %length) #23
  %0 = and i8 %call.i, 1
  %tobool.i.not.i = icmp eq i8 %0, 0
  br i1 %tobool.i.not.i, label %do.body5.i, label %"_ZZN4nodeL32InitializeOncePerProcessInternalERKSt6vectorINSt7__cxx1112basic_stringIcSt11char_traitsIcESaIcEEESaIS6_EENS_26ProcessInitializationFlags5FlagsEENK3$_1clEPhm.exit"

do.body5.i:                                       ; preds = %entry
  tail call void @_ZN4node6AssertERKNS_13AssertionInfoE(ptr noundef nonnull align 8 dereferenceable(24) @"_ZZZN4nodeL32InitializeOncePerProcessInternalERKSt6vectorINSt7__cxx1112basic_stringIcSt11char_traitsIcESaIcEEESaIS6_EENS_26ProcessInitializationFlags5FlagsEENK3$_1clEPhmE4args") #23
  tail call void @abort() #26
  unreachable

"_ZZN4nodeL32InitializeOncePerProcessInternalERKSt6vectorINSt7__cxx1112basic_stringIcSt11char_traitsIcESaIcEEESaIS6_EENS_26ProcessInitializationFlags5FlagsEENK3$_1clEPhm.exit": ; preds = %entry
  ret i1 true
}